; Function Attrs: mustprogress uwtable
define noundef zeroext i1 @_ZNK7rocksdb15BlockBasedTable17TimestampMayMatchERKNS_11ReadOptionsE(ptr nocapture noundef nonnull readonly align 8 dereferenceable(24) %this, ptr nocapture noundef nonnull readonly align 8 dereferenceable(154) %read_options) local_unnamed_addr #3 align 2 {
entry:
  %timestamp = getelementptr inbounds i8, ptr %read_options, i64 8
  %0 = load ptr, ptr %timestamp, align 8
  %cmp.not = icmp eq ptr %0, null
  br i1 %cmp.not, label %return, label %land.lhs.true

land.lhs.true:                                    ; preds = %entry
  %rep_ = getelementptr inbounds i8, ptr %this, i64 8
  %1 = load ptr, ptr %rep_, align 8
  %size_.i = getelementptr inbounds i8, ptr %1, i64 632
  %2 = load i64, ptr %size_.i, align 8
  %cmp.i = icmp eq i64 %2, 0
  br i1 %cmp.i, label %return, label %if.then

if.then:                                          ; preds = %land.lhs.true
  %3 = load ptr, ptr %1, align 8
  %stats = getelementptr inbounds i8, ptr %3, i64 536
  %4 = load ptr, ptr %stats, align 8
  %tobool.not.i = icmp eq ptr %4, null
  br i1 %tobool.not.i, label %_ZN7rocksdb10RecordTickEPNS_10StatisticsEjm.exit, label %if.then.i

if.then.i:                                        ; preds = %if.then
  %vtable.i = load ptr, ptr %4, align 8
  %vfn.i = getelementptr inbounds i8, ptr %vtable.i, i64 176
  %5 = load ptr, ptr %vfn.i, align 8
  tail call void %5(ptr noundef nonnull align 8 dereferenceable(33) %4, i32 noundef 195, i64 noundef 1)
  %.pre = load ptr, ptr %timestamp, align 8
  %.pre7 = load ptr, ptr %rep_, align 8
  br label %_ZN7rocksdb10RecordTickEPNS_10StatisticsEjm.exit

_ZN7rocksdb10RecordTickEPNS_10StatisticsEjm.exit: ; preds = %if.then, %if.then.i
  %6 = phi ptr [ %1, %if.then ], [ %.pre7, %if.then.i ]
  %7 = phi ptr [ %0, %if.then ], [ %.pre, %if.then.i ]
  %internal_comparator = getelementptr inbounds i8, ptr %6, i64 272
  %8 = load ptr, ptr %internal_comparator, align 8
  %user_comparator_.i = getelementptr inbounds i8, ptr %8, i64 8
  %9 = load ptr, ptr %user_comparator_.i, align 8
  %min_timestamp7 = getelementptr inbounds i8, ptr %6, i64 624
  %vtable = load ptr, ptr %9, align 8
  %vfn = getelementptr inbounds i8, ptr %vtable, i64 200
  %10 = load ptr, ptr %vfn, align 8
  %call8 = tail call noundef i32 %10(ptr noundef nonnull align 8 dereferenceable(48) %9, ptr noundef nonnull align 8 dereferenceable(16) %7, ptr noundef nonnull align 8 dereferenceable(16) %min_timestamp7)
  %cmp9 = icmp slt i32 %call8, 0
  br i1 %cmp9, label %if.then10, label %return

if.then10:                                        ; preds = %_ZN7rocksdb10RecordTickEPNS_10StatisticsEjm.exit
  %11 = load ptr, ptr %rep_, align 8
  %12 = load ptr, ptr %11, align 8
  %stats13 = getelementptr inbounds i8, ptr %12, i64 536
  %13 = load ptr, ptr %stats13, align 8
  %tobool.not.i2 = icmp eq ptr %13, null
  br i1 %tobool.not.i2, label %return, label %if.then.i3

if.then.i3:                                       ; preds = %if.then10
  %vtable.i4 = load ptr, ptr %13, align 8
  %vfn.i5 = getelementptr inbounds i8, ptr %vtable.i4, i64 176
  %14 = load ptr, ptr %vfn.i5, align 8
  tail call void %14(ptr noundef nonnull align 8 dereferenceable(33) %13, i32 noundef 196, i64 noundef 1)
  br label %return

return:                                           ; preds = %if.then.i3, %if.then10, %entry, %land.lhs.true, %_ZN7rocksdb10RecordTickEPNS_10StatisticsEjm.exit
  %retval.0 = phi i1 [ true, %_ZN7rocksdb10RecordTickEPNS_10StatisticsEjm.exit ], [ true, %land.lhs.true ], [ true, %entry ], [ false, %if.then10 ], [ false, %if.then.i3 ]
  ret i1 %retval.0
}